target datalayout = "e-m:e-p270:32:32-p271:32:32-p272:64:64-i64:64-i128:128-f80:128-n8:16:32:64-S128"
target triple = "x86_64-pc-linux-gnu"

%struct.rb_iseq_struct = type { i64, i64, ptr, %union.anon.15 }
%union.anon.15 = type { %struct.anon.16 }
%struct.anon.16 = type { i64, i32 }
%struct.rb_iseq_constant_body = type { i32, i32, ptr, %struct.anon.18, %struct.rb_iseq_location_struct, %struct.iseq_insn_info, ptr, ptr, ptr, ptr, ptr, ptr, %struct.anon.19, i32, i32, i32, i32, i32, i32, i32, i32, i8, %union.anon.20, ptr, ptr, ptr, i64, ptr, i64, ptr, i64 }
%struct.anon.18 = type { %struct.anon, i32, i32, i32, i32, i32, i32, i32, ptr, ptr }
%struct.anon = type { i16, [2 x i8] }
%struct.rb_iseq_location_struct = type { i64, i64, i64, i32, i32, %struct.rb_code_location_struct }
%struct.rb_code_location_struct = type { %struct.rb_code_position_struct, %struct.rb_code_position_struct }
%struct.rb_code_position_struct = type { i32, i32 }
%struct.iseq_insn_info = type { ptr, ptr, i32, ptr }
%struct.anon.19 = type { i64, i64, i64, i64, ptr }
%union.anon.20 = type { ptr }
%struct.rb_vm_struct = type { i64, %struct.anon.0, ptr, i64, %struct.ccan_list_head, i32, i8, i64, ptr, [5 x i64], i64, i64, i64, i64, i64, i64, i64, i64, i64, ptr, ptr, ptr, %struct.anon.4, ptr, i32, %struct.ccan_list_head, %union.pthread_mutex_t, i64, i64, i64, i64, i32, %struct.anon.5, ptr, ptr, ptr, ptr, ptr, ptr, ptr, ptr, i64, [1023 x ptr], %struct.anon.6 }
%struct.anon.0 = type { %struct.ccan_list_head, i32, i32, ptr, ptr, %struct.anon.1, %struct.anon.3 }
%struct.anon.1 = type { %union.pthread_mutex_t, ptr, i32, %union.pthread_cond_t, i8 }
%union.pthread_cond_t = type { %struct.__pthread_cond_s }
%struct.__pthread_cond_s = type { %union.__atomic_wide_counter, %union.__atomic_wide_counter, [2 x i32], [2 x i32], i32, i32, [2 x i32] }
%union.__atomic_wide_counter = type { i64 }
%struct.anon.3 = type { %union.pthread_mutex_t, ptr, i8, %union.pthread_cond_t, i32, i32, i32, i32, %struct.ccan_list_head, i32, %struct.ccan_list_head, %struct.ccan_list_head, %struct.ccan_list_head, i8, %union.pthread_cond_t, %union.pthread_cond_t, i8, i32, i32 }
%struct.anon.4 = type { [65 x i64] }
%struct.ccan_list_head = type { %struct.ccan_list_node }
%struct.ccan_list_node = type { ptr, ptr }
%union.pthread_mutex_t = type { %struct.__pthread_mutex_s }
%struct.__pthread_mutex_s = type { i32, i32, i32, i32, i32, i16, i16, %struct.__pthread_internal_list }
%struct.__pthread_internal_list = type { ptr, ptr }
%struct.anon.5 = type { ptr, ptr }
%struct.anon.6 = type { i64, i64, i64, i64 }

@ruby_current_vm_ptr = external global ptr, align 8

; Function Attrs: inlinehint nounwind sspstrong uwtable
define internal ptr @rb_current_vm() #3 {
  %1 = load ptr, ptr @ruby_current_vm_ptr, align 8, !tbaa !896
  ret ptr %1
}

; Function Attrs: nounwind sspstrong uwtable
define internal void @iseq_set_use_block(ptr noundef %0) #0 {
  %2 = alloca ptr, align 8
  %3 = alloca ptr, align 8
  %4 = alloca ptr, align 8
  %5 = alloca i64, align 8
  store ptr %0, ptr %2, align 8, !tbaa !11
  call void @llvm.lifetime.start.p0(i64 8, ptr %3) #31
  %6 = load ptr, ptr %2, align 8, !tbaa !11
  %7 = getelementptr inbounds nuw %struct.rb_iseq_struct, ptr %6, i32 0, i32 2
  %8 = load ptr, ptr %7, align 8, !tbaa !52
  store ptr %8, ptr %3, align 8, !tbaa !105
  %9 = load ptr, ptr %3, align 8, !tbaa !105
  %10 = getelementptr inbounds nuw %struct.rb_iseq_constant_body, ptr %9, i32 0, i32 3
  %11 = getelementptr inbounds nuw %struct.anon.18, ptr %10, i32 0, i32 0
  %12 = load i16, ptr %11, align 8
  %13 = lshr i16 %12, 12
  %14 = and i16 %13, 1
  %15 = zext i16 %14 to i32
  %16 = icmp ne i32 %15, 0
  br i1 %16, label %38, label %17

17:                                               ; preds = %1
  %18 = load ptr, ptr %3, align 8, !tbaa !105
  %19 = getelementptr inbounds nuw %struct.rb_iseq_constant_body, ptr %18, i32 0, i32 3
  %20 = getelementptr inbounds nuw %struct.anon.18, ptr %19, i32 0, i32 0
  %21 = load i16, ptr %20, align 8
  %22 = and i16 %21, -4097
  %23 = or i16 %22, 4096
  store i16 %23, ptr %20, align 8
  call void @llvm.lifetime.start.p0(i64 8, ptr %4) #31
  %24 = call ptr @rb_current_vm()
  store ptr %24, ptr %4, align 8, !tbaa !896
  %25 = call zeroext i1 @rb_warning_category_enabled_p(i32 noundef 4)
  br i1 %25, label %37, label %26

26:                                               ; preds = %17
  call void @llvm.lifetime.start.p0(i64 8, ptr %5) #31
  %27 = load ptr, ptr %3, align 8, !tbaa !105
  %28 = getelementptr inbounds nuw %struct.rb_iseq_constant_body, ptr %27, i32 0, i32 4
  %29 = getelementptr inbounds nuw %struct.rb_iseq_location_struct, ptr %28, i32 0, i32 2
  %30 = load i64, ptr %29, align 8, !tbaa !681
  %31 = call i64 @rb_intern_str(i64 noundef %30)
  store i64 %31, ptr %5, align 8, !tbaa !7
  %32 = load ptr, ptr %4, align 8, !tbaa !896
  %33 = getelementptr inbounds nuw %struct.rb_vm_struct, ptr %32, i32 0, i32 39
  %34 = load ptr, ptr %33, align 8, !tbaa !898
  %35 = load i64, ptr %5, align 8, !tbaa !7
  %36 = call i32 @rb_st_insert(ptr noundef %34, i64 noundef %35, i64 noundef 1)
  call void @llvm.lifetime.end.p0(i64 8, ptr %5) #31
  br label %37

37:                                               ; preds = %26, %17
  call void @llvm.lifetime.end.p0(i64 8, ptr %4) #31
  br label %38

38:                                               ; preds = %37, %1
  call void @llvm.lifetime.end.p0(i64 8, ptr %3) #31
  ret void
}