; Function Attrs: nounwind sspstrong uwtable
define internal fastcc void @iseq_set_use_block(ptr captures(none) %.16.val) unnamed_addr #1 {
  %1 = getelementptr inbounds nuw i8, ptr %.16.val, i64 16
  %2 = load i16, ptr %1, align 8
  %3 = and i16 %2, 4096
  %.not = icmp eq i16 %3, 0
  br i1 %.not, label %4, label %15

4:                                                ; preds = %0
  %5 = or disjoint i16 %2, 4096
  store i16 %5, ptr %1, align 8
  %6 = load ptr, ptr @ruby_current_vm_ptr, align 8, !tbaa !223
  %7 = tail call zeroext i1 @rb_warning_category_enabled_p(i32 noundef 4) #38
  br i1 %7, label %15, label %8

8:                                                ; preds = %4
  %9 = getelementptr inbounds nuw i8, ptr %.16.val, i64 80
  %10 = load i64, ptr %9, align 8, !tbaa !225
  %11 = tail call i64 @rb_intern_str(i64 noundef %10) #38
  %12 = getelementptr inbounds nuw i8, ptr %6, i64 1360
  %13 = load ptr, ptr %12, align 8, !tbaa !226
  %14 = tail call i32 @rb_st_insert(ptr noundef %13, i64 noundef %11, i64 noundef 1) #38
  br label %15

15:                                               ; preds = %4, %8, %0
  ret void
}